; ModuleID = '24/2223.c'
source_filename = "24/2223.c"
target datalayout = "e-m:e-p270:32:32-p271:32:32-p272:64:64-i64:64-f80:128-n8:16:32:64-S128"
target triple = "x86_64-pc-linux-gnu"

@.str = private unnamed_addr constant [7 x i8] c"%s\0A%s\0A\00", align 1

; Function Attrs: noinline nounwind uwtable
define dso_local i32 @main() #0 {
  %1 = alloca i32, align 4
  %2 = alloca [2000 x i8], align 16
  %3 = alloca [50 x i8], align 16
  %4 = alloca [20 x i8], align 16
  %5 = alloca i32, align 4
  %6 = alloca i32, align 4
  %7 = alloca i32, align 4
  %8 = alloca i32, align 4
  %9 = alloca i32, align 4
  store i32 0, i32* %1, align 4
  %10 = bitcast [2000 x i8]* %2 to i8*
  call void @llvm.memset.p0i8.i64(i8* align 16 %10, i8 0, i64 2000, i1 false)
  %11 = bitcast [50 x i8]* %3 to i8*
  call void @llvm.memset.p0i8.i64(i8* align 16 %11, i8 0, i64 50, i1 false)
  %12 = bitcast [20 x i8]* %4 to i8*
  call void @llvm.memset.p0i8.i64(i8* align 16 %12, i8 0, i64 20, i1 false)
  store i32 0, i32* %5, align 4
  store i32 0, i32* %7, align 4
  store i32 0, i32* %8, align 4
  store i32 100, i32* %9, align 4
  br label %13

13:                                               ; preds = %0, %120
  %14 = call i32 @getchar()
  %15 = trunc i32 %14 to i8
  %16 = load i32, i32* %5, align 4
  %17 = sext i32 %16 to i64
  %18 = getelementptr inbounds [2000 x i8], [2000 x i8]* %2, i64 0, i64 %17
  store i8 %15, i8* %18, align 1
  %19 = load i32, i32* %5, align 4
  %20 = sext i32 %19 to i64
  %21 = getelementptr inbounds [2000 x i8], [2000 x i8]* %2, i64 0, i64 %20
  %22 = load i8, i8* %21, align 1
  %23 = sext i8 %22 to i32
  %24 = icmp ne i32 %23, 44
  br i1 %24, label %25, label %42

25:                                               ; preds = %13
  %26 = load i32, i32* %5, align 4
  %27 = sext i32 %26 to i64
  %28 = getelementptr inbounds [2000 x i8], [2000 x i8]* %2, i64 0, i64 %27
  %29 = load i8, i8* %28, align 1
  %30 = sext i8 %29 to i32
  %31 = icmp ne i32 %30, 32
  br i1 %31, label %32, label %42

32:                                               ; preds = %25
  %33 = load i32, i32* %5, align 4
  %34 = sext i32 %33 to i64
  %35 = getelementptr inbounds [2000 x i8], [2000 x i8]* %2, i64 0, i64 %34
  %36 = load i8, i8* %35, align 1
  %37 = sext i8 %36 to i32
  %38 = icmp ne i32 %37, 10
  br i1 %38, label %39, label %42

39:                                               ; preds = %32
  %40 = load i32, i32* %7, align 4
  %41 = add nsw i32 %40, 1
  store i32 %41, i32* %7, align 4
  br label %120

42:                                               ; preds = %32, %25, %13
  %43 = load i32, i32* %7, align 4
  %44 = icmp ne i32 %43, 0
  br i1 %44, label %45, label %119

45:                                               ; preds = %42
  %46 = load i32, i32* %7, align 4
  %47 = load i32, i32* %8, align 4
  %48 = icmp sgt i32 %46, %47
  br i1 %48, label %49, label %74

49:                                               ; preds = %45
  %50 = load i32, i32* %7, align 4
  store i32 %50, i32* %8, align 4
  %51 = load i32, i32* %5, align 4
  %52 = load i32, i32* %7, align 4
  %53 = sub nsw i32 %51, %52
  store i32 %53, i32* %6, align 4
  br label %54

54:                                               ; preds = %70, %49
  %55 = load i32, i32* %6, align 4
  %56 = load i32, i32* %5, align 4
  %57 = icmp slt i32 %55, %56
  br i1 %57, label %58, label %73

58:                                               ; preds = %54
  %59 = load i32, i32* %6, align 4
  %60 = sext i32 %59 to i64
  %61 = getelementptr inbounds [2000 x i8], [2000 x i8]* %2, i64 0, i64 %60
  %62 = load i8, i8* %61, align 1
  %63 = load i32, i32* %6, align 4
  %64 = load i32, i32* %5, align 4
  %65 = sub nsw i32 %63, %64
  %66 = load i32, i32* %7, align 4
  %67 = add nsw i32 %65, %66
  %68 = sext i32 %67 to i64
  %69 = getelementptr inbounds [50 x i8], [50 x i8]* %3, i64 0, i64 %68
  store i8 %62, i8* %69, align 1
  br label %70

70:                                               ; preds = %58
  %71 = load i32, i32* %6, align 4
  %72 = add nsw i32 %71, 1
  store i32 %72, i32* %6, align 4
  br label %54

73:                                               ; preds = %54
  br label %74

74:                                               ; preds = %73, %45
  %75 = load i32, i32* %7, align 4
  %76 = load i32, i32* %9, align 4
  %77 = icmp slt i32 %75, %76
  br i1 %77, label %78, label %110

78:                                               ; preds = %74
  %79 = load i32, i32* %7, align 4
  store i32 %79, i32* %9, align 4
  %80 = load i32, i32* %5, align 4
  %81 = load i32, i32* %7, align 4
  %82 = sub nsw i32 %80, %81
  store i32 %82, i32* %6, align 4
  br label %83

83:                                               ; preds = %99, %78
  %84 = load i32, i32* %6, align 4
  %85 = load i32, i32* %5, align 4
  %86 = icmp slt i32 %84, %85
  br i1 %86, label %87, label %102

87:                                               ; preds = %83
  %88 = load i32, i32* %6, align 4
  %89 = sext i32 %88 to i64
  %90 = getelementptr inbounds [2000 x i8], [2000 x i8]* %2, i64 0, i64 %89
  %91 = load i8, i8* %90, align 1
  %92 = load i32, i32* %6, align 4
  %93 = load i32, i32* %5, align 4
  %94 = sub nsw i32 %92, %93
  %95 = load i32, i32* %7, align 4
  %96 = add nsw i32 %94, %95
  %97 = sext i32 %96 to i64
  %98 = getelementptr inbounds [20 x i8], [20 x i8]* %4, i64 0, i64 %97
  store i8 %91, i8* %98, align 1
  br label %99

99:                                               ; preds = %87
  %100 = load i32, i32* %6, align 4
  %101 = add nsw i32 %100, 1
  store i32 %101, i32* %6, align 4
  br label %83

102:                                              ; preds = %83
  %103 = load i32, i32* %6, align 4
  %104 = load i32, i32* %5, align 4
  %105 = sub nsw i32 %103, %104
  %106 = load i32, i32* %7, align 4
  %107 = add nsw i32 %105, %106
  %108 = sext i32 %107 to i64
  %109 = getelementptr inbounds [20 x i8], [20 x i8]* %4, i64 0, i64 %108
  store i8 0, i8* %109, align 1
  br label %110

110:                                              ; preds = %102, %74
  store i32 0, i32* %7, align 4
  %111 = load i32, i32* %5, align 4
  %112 = sext i32 %111 to i64
  %113 = getelementptr inbounds [2000 x i8], [2000 x i8]* %2, i64 0, i64 %112
  %114 = load i8, i8* %113, align 1
  %115 = sext i8 %114 to i32
  %116 = icmp eq i32 %115, 10
  br i1 %116, label %117, label %118

117:                                              ; preds = %110
  br label %123

118:                                              ; preds = %110
  br label %119

119:                                              ; preds = %118, %42
  br label %120

120:                                              ; preds = %119, %39
  %121 = load i32, i32* %5, align 4
  %122 = add nsw i32 %121, 1
  store i32 %122, i32* %5, align 4
  br label %13

123:                                              ; preds = %117
  %124 = getelementptr inbounds [50 x i8], [50 x i8]* %3, i64 0, i64 0
  %125 = getelementptr inbounds [20 x i8], [20 x i8]* %4, i64 0, i64 0
  %126 = call i32 (i8*, ...) @printf(i8* getelementptr inbounds ([7 x i8], [7 x i8]* @.str, i64 0, i64 0), i8* %124, i8* %125)
  ret i32 0
}

; Function Attrs: argmemonly nounwind willreturn
declare void @llvm.memset.p0i8.i64(i8* nocapture writeonly, i8, i64, i1 immarg) #1

declare dso_local i32 @getchar() #2

declare dso_local i32 @printf(i8*, ...) #2


!llvm.module.flags = !{!0}
!llvm.ident = !{!1}

!0 = !{i32 1, !"wchar_size", i32 4}
!1 = !{!"clang version 10.0.0-4ubuntu1 "}
